target datalayout = "e-m:e-p270:32:32-p271:32:32-p272:64:64-i64:64-i128:128-f80:128-n8:16:32:64-S128"
target triple = "x86_64-unknown-linux-gnu"

%"struct.Assimp::ScenePrivateData" = type <{ ptr, i32, i8, [3 x i8] }>
%struct.aiScene = type { i32, ptr, i32, ptr, i32, ptr, i32, ptr, i32, ptr, i32, ptr, i32, ptr, ptr, %struct.aiString, i32, ptr, ptr }
%struct.aiString = type { i32, [1024 x i8] }
%struct.ExceptionSwallower.45 = type { i8 }

@.str = private unnamed_addr constant [126 x i8] c"Unable to find the Assimp::Importer for this aiScene. The C-API does not accept scenes produced by the C++ API and vice versa\00", align 1

; Function Attrs: noreturn nounwind uwtable
define linkonce_odr hidden void @__clang_call_terminate(ptr noundef %0) #9 comdat {
  %2 = call ptr @__cxa_begin_catch(ptr %0) #3
  call void @_ZSt9terminatev() #20
  unreachable
}

; Function Attrs: mustprogress nounwind uwtable
define linkonce_odr hidden void @_ZNK18ExceptionSwallowerIvEclEv(ptr noundef nonnull align 1 dereferenceable(1) %this) #0 comdat align 2 {
entry:
  %this.addr = alloca ptr, align 8
  store ptr %this, ptr %this.addr, align 8
  ret void
}

; Function Attrs: mustprogress uwtable
define hidden void @_Z24ReportSceneNotFoundErrorv() #5 {
entry:
  %call = call noundef ptr @_ZN6Assimp13DefaultLogger3getEv()
  call void @_ZN6Assimp6Logger5errorEPKc(ptr noundef nonnull align 8 dereferenceable(12) %call, ptr noundef @.str)
  ret void
}

; Function Attrs: mustprogress nounwind uwtable
define linkonce_odr hidden noundef ptr @_ZN6Assimp9ScenePrivEPK7aiScene(ptr noundef %in) #0 comdat {
entry:
  %retval = alloca ptr, align 8
  %in.addr = alloca ptr, align 8
  store ptr %in, ptr %in.addr, align 8
  %0 = load ptr, ptr %in.addr, align 8
  %cmp = icmp eq ptr null, %0
  br i1 %cmp, label %if.then, label %if.end

if.then:                                          ; preds = %entry
  store ptr null, ptr %retval, align 8
  br label %return

if.end:                                           ; preds = %entry
  %1 = load ptr, ptr %in.addr, align 8
  %mPrivate = getelementptr inbounds %struct.aiScene, ptr %1, i32 0, i32 18
  %2 = load ptr, ptr %mPrivate, align 8
  store ptr %2, ptr %retval, align 8
  br label %return

return:                                           ; preds = %if.end, %if.then
  %3 = load ptr, ptr %retval, align 8
  ret ptr %3
}

; Function Attrs: mustprogress uwtable
define void @aiGetMemoryRequirements(ptr noundef %pIn, ptr noundef %in) #5 personality ptr @__gxx_personality_v0 {
entry:
  %pIn.addr = alloca ptr, align 8
  %in.addr = alloca ptr, align 8
  %priv = alloca ptr, align 8
  %exn.slot = alloca ptr, align 8
  %ehselector.slot = alloca i32, align 4
  %ref.tmp = alloca %struct.ExceptionSwallower.45, align 1
  store ptr %pIn, ptr %pIn.addr, align 8
  store ptr %in, ptr %in.addr, align 8
  %0 = load ptr, ptr %pIn.addr, align 8
  %call = invoke noundef ptr @_ZN6Assimp9ScenePrivEPK7aiScene(ptr noundef %0)
          to label %invoke.cont unwind label %lpad

invoke.cont:                                      ; preds = %entry
  store ptr %call, ptr %priv, align 8
  %1 = load ptr, ptr %priv, align 8
  %tobool = icmp ne ptr %1, null
  br i1 %tobool, label %lor.lhs.false, label %if.then

lor.lhs.false:                                    ; preds = %invoke.cont
  %2 = load ptr, ptr %priv, align 8
  %mOrigImporter = getelementptr inbounds %"struct.Assimp::ScenePrivateData", ptr %2, i32 0, i32 0
  %3 = load ptr, ptr %mOrigImporter, align 8
  %tobool1 = icmp ne ptr %3, null
  br i1 %tobool1, label %if.end, label %if.then

if.then:                                          ; preds = %lor.lhs.false, %invoke.cont
  invoke void @_Z24ReportSceneNotFoundErrorv()
          to label %invoke.cont2 unwind label %lpad

invoke.cont2:                                     ; preds = %if.then
  br label %try.cont

lpad:                                             ; preds = %if.end, %if.then, %entry
  %4 = landingpad { ptr, i32 }
          catch ptr null
  %5 = extractvalue { ptr, i32 } %4, 0
  store ptr %5, ptr %exn.slot, align 8
  %6 = extractvalue { ptr, i32 } %4, 1
  store i32 %6, ptr %ehselector.slot, align 4
  br label %catch

catch:                                            ; preds = %lpad
  %exn = load ptr, ptr %exn.slot, align 8
  %7 = call ptr @__cxa_begin_catch(ptr %exn) #3
  invoke void @_ZNK18ExceptionSwallowerIvEclEv(ptr noundef nonnull align 1 dereferenceable(1) %ref.tmp)
          to label %invoke.cont6 unwind label %lpad5

invoke.cont6:                                     ; preds = %catch
  call void @__cxa_end_catch()
  br label %try.cont

if.end:                                           ; preds = %lor.lhs.false
  %8 = load ptr, ptr %priv, align 8
  %mOrigImporter3 = getelementptr inbounds %"struct.Assimp::ScenePrivateData", ptr %8, i32 0, i32 0
  %9 = load ptr, ptr %mOrigImporter3, align 8
  %10 = load ptr, ptr %in.addr, align 8
  invoke void @_ZNK6Assimp8Importer21GetMemoryRequirementsER12aiMemoryInfo(ptr noundef nonnull align 8 dereferenceable(8) %9, ptr noundef nonnull align 4 dereferenceable(32) %10)
          to label %invoke.cont4 unwind label %lpad

invoke.cont4:                                     ; preds = %if.end
  br label %try.cont

lpad5:                                            ; preds = %catch
  %11 = landingpad { ptr, i32 }
          cleanup
  %12 = extractvalue { ptr, i32 } %11, 0
  store ptr %12, ptr %exn.slot, align 8
  %13 = extractvalue { ptr, i32 } %11, 1
  store i32 %13, ptr %ehselector.slot, align 4
  invoke void @__cxa_end_catch()
          to label %invoke.cont7 unwind label %terminate.lpad

invoke.cont7:                                     ; preds = %lpad5
  br label %eh.resume

try.cont:                                         ; preds = %invoke.cont4, %invoke.cont6, %invoke.cont2
  ret void

eh.resume:                                        ; preds = %invoke.cont7
  %exn8 = load ptr, ptr %exn.slot, align 8
  %sel = load i32, ptr %ehselector.slot, align 4
  %lpad.val = insertvalue { ptr, i32 } poison, ptr %exn8, 0
  %lpad.val9 = insertvalue { ptr, i32 } %lpad.val, i32 %sel, 1
  resume { ptr, i32 } %lpad.val9

terminate.lpad:                                   ; preds = %lpad5
  %14 = landingpad { ptr, i32 }
          catch ptr null
  %15 = extractvalue { ptr, i32 } %14, 0
  call void @__clang_call_terminate(ptr %15) #20
  unreachable
}