; Function Attrs: mustprogress uwtable
define void @aiGetMemoryRequirements(ptr noundef readonly %pIn, ptr noundef %in) local_unnamed_addr #3 personality ptr @__gxx_personality_v0 {
entry:
  %cmp.i = icmp eq ptr %pIn, null
  br i1 %cmp.i, label %if.then, label %_ZN6Assimp9ScenePrivEPK7aiScene.exit

_ZN6Assimp9ScenePrivEPK7aiScene.exit:             ; preds = %entry
  %mPrivate.i = getelementptr inbounds i8, ptr %pIn, i64 1160
  %0 = load ptr, ptr %mPrivate.i, align 8
  %tobool.not = icmp eq ptr %0, null
  br i1 %tobool.not, label %if.then, label %lor.lhs.false

lor.lhs.false:                                    ; preds = %_ZN6Assimp9ScenePrivEPK7aiScene.exit
  %1 = load ptr, ptr %0, align 8
  %tobool1.not = icmp eq ptr %1, null
  br i1 %tobool1.not, label %if.then, label %if.end

if.then:                                          ; preds = %entry, %lor.lhs.false, %_ZN6Assimp9ScenePrivEPK7aiScene.exit
  %call.i3 = invoke noundef ptr @_ZN6Assimp13DefaultLogger3getEv()
          to label %call.i.noexc unwind label %lpad

call.i.noexc:                                     ; preds = %if.then
  invoke void @_ZN6Assimp6Logger5errorEPKc(ptr noundef nonnull align 8 dereferenceable(12) %call.i3, ptr noundef nonnull @.str)
          to label %try.cont unwind label %lpad

lpad:                                             ; preds = %call.i.noexc, %if.then, %if.end
  %2 = landingpad { ptr, i32 }
          catch ptr null
  %3 = extractvalue { ptr, i32 } %2, 0
  %4 = tail call ptr @__cxa_begin_catch(ptr %3) #44
  tail call void @__cxa_end_catch()
  br label %try.cont

if.end:                                           ; preds = %lor.lhs.false
  invoke void @_ZNK6Assimp8Importer21GetMemoryRequirementsER12aiMemoryInfo(ptr noundef nonnull align 8 dereferenceable(8) %1, ptr noundef nonnull align 4 dereferenceable(32) %in)
          to label %try.cont unwind label %lpad

try.cont:                                         ; preds = %call.i.noexc, %if.end, %lpad
  ret void
}